target datalayout = "e-m:e-p270:32:32-p271:32:32-p272:64:64-i64:64-i128:128-f80:128-n8:16:32:64-S128"
target triple = "x86_64-pc-linux-gnu"

%"struct.btInverseDynamicsBullet3::RigidBody" = type { float, %"class.btInverseDynamicsBullet3::vec3", %"class.btInverseDynamicsBullet3::mat33", %"class.btInverseDynamicsBullet3::vec3", %"class.btInverseDynamicsBullet3::vec3", %"class.btInverseDynamicsBullet3::vec3", %"class.btInverseDynamicsBullet3::vec3", %"class.btInverseDynamicsBullet3::vec3", %"class.btInverseDynamicsBullet3::vec3", %"class.btInverseDynamicsBullet3::vec3", %"class.btInverseDynamicsBullet3::vec3", %"class.btInverseDynamicsBullet3::vec3", %"class.btInverseDynamicsBullet3::vec3", %"class.btInverseDynamicsBullet3::vec3", %"class.btInverseDynamicsBullet3::mat33", %"class.btInverseDynamicsBullet3::mat33", %"class.btInverseDynamicsBullet3::vec3", %"class.btInverseDynamicsBullet3::vec3", %"class.btInverseDynamicsBullet3::vec3", %"class.btInverseDynamicsBullet3::vec3", %"class.btInverseDynamicsBullet3::vec3", i32, %"class.btInverseDynamicsBullet3::vec3", %"class.btInverseDynamicsBullet3::mat33", %"class.btInverseDynamicsBullet3::vec3", %"class.btInverseDynamicsBullet3::vec3", %"class.btInverseDynamicsBullet3::vec3", i32, float, %"class.btInverseDynamicsBullet3::vec3", %"class.btInverseDynamicsBullet3::mat33", %"class.btInverseDynamicsBullet3::mat3x", %"class.btInverseDynamicsBullet3::mat3x", %"class.btInverseDynamicsBullet3::vec3", %"class.btInverseDynamicsBullet3::vec3" }
%"class.btInverseDynamicsBullet3::mat33" = type { %class.btMatrix3x3 }
%class.btMatrix3x3 = type { [3 x %class.btVector3] }
%class.btVector3 = type { [4 x float] }
%"class.btInverseDynamicsBullet3::mat3x" = type { %struct.btMatrixX }
%struct.btMatrixX = type { i32, i32, i32, i32, i32, [4 x i8], %class.btAlignedObjectArray, %class.btAlignedObjectArray.6 }
%class.btAlignedObjectArray = type <{ [4 x i8], i32, i32, [4 x i8], ptr, i8, [7 x i8] }>
%class.btAlignedObjectArray.6 = type <{ [4 x i8], i32, i32, [4 x i8], ptr, i8, [7 x i8] }>
%"class.btInverseDynamicsBullet3::vec3" = type { %class.btVector3 }
%class.b3AlignedObjectArray.0 = type <{ [4 x i8], i32, i32, [4 x i8], ptr, i8, [7 x i8] }>
%"class.btInverseDynamicsBullet3::MultiBodyTree::MultiBodyImpl" = type { i32, i32, %"class.btInverseDynamicsBullet3::vec3", %class.b3AlignedObjectArray, %class.b3AlignedObjectArray.0, %class.b3AlignedObjectArray.2, %class.b3AlignedObjectArray.0, %class.b3AlignedObjectArray.0, %class.b3AlignedObjectArray.0, %class.b3AlignedObjectArray.0, %class.b3AlignedObjectArray.0, %class.b3AlignedObjectArray.4, %"class.btInverseDynamicsBullet3::mat3x" }
%class.b3AlignedObjectArray = type <{ [4 x i8], i32, i32, [4 x i8], ptr, i8, [7 x i8] }>
%class.b3AlignedObjectArray.2 = type <{ [4 x i8], i32, i32, [4 x i8], ptr, i8, [7 x i8] }>
%class.b3AlignedObjectArray.4 = type <{ [4 x i8], i32, i32, [4 x i8], ptr, i8, [7 x i8] }>

@.str.16 = private unnamed_addr constant [17 x i8] c"b3Error[%s,%d]:\0A\00", align 1
@.str.17 = private unnamed_addr constant [149 x i8] c"generated/home/dtcxzyw/WorkSpace/Projects/compilers/llvm-opt-benchmark/bench/bullet3/bullet3/src/BulletInverseDynamics/details/MultiBodyTreeImpl.cpp\00", align 1
@.str.30 = private unnamed_addr constant [35 x i8] c"invalid index %d (num_bodies= %d)\0A\00", align 1

; Function Attrs: inlinehint mustprogress nounwind uwtable
define linkonce_odr dso_local void @_ZN9btVector38setValueERKfS1_S1_(ptr noundef nonnull align 4 dereferenceable(16) %0, ptr noundef nonnull align 4 dereferenceable(4) %1, ptr noundef nonnull align 4 dereferenceable(4) %2, ptr noundef nonnull align 4 dereferenceable(4) %3) #6 comdat align 2 {
  %5 = alloca ptr, align 8
  %6 = alloca ptr, align 8
  %7 = alloca ptr, align 8
  %8 = alloca ptr, align 8
  store ptr %0, ptr %5, align 8, !tbaa !92
  store ptr %1, ptr %6, align 8, !tbaa !113
  store ptr %2, ptr %7, align 8, !tbaa !113
  store ptr %3, ptr %8, align 8, !tbaa !113
  %9 = load ptr, ptr %5, align 8
  %10 = load ptr, ptr %6, align 8, !tbaa !113
  %11 = load float, ptr %10, align 4, !tbaa !40
  %12 = getelementptr inbounds nuw %class.btVector3, ptr %9, i32 0, i32 0
  %13 = getelementptr inbounds [4 x float], ptr %12, i64 0, i64 0
  store float %11, ptr %13, align 4, !tbaa !40
  %14 = load ptr, ptr %7, align 8, !tbaa !113
  %15 = load float, ptr %14, align 4, !tbaa !40
  %16 = getelementptr inbounds nuw %class.btVector3, ptr %9, i32 0, i32 0
  %17 = getelementptr inbounds [4 x float], ptr %16, i64 0, i64 1
  store float %15, ptr %17, align 4, !tbaa !40
  %18 = load ptr, ptr %8, align 8, !tbaa !113
  %19 = load float, ptr %18, align 4, !tbaa !40
  %20 = getelementptr inbounds nuw %class.btVector3, ptr %9, i32 0, i32 0
  %21 = getelementptr inbounds [4 x float], ptr %20, i64 0, i64 2
  store float %19, ptr %21, align 4, !tbaa !40
  %22 = getelementptr inbounds nuw %class.btVector3, ptr %9, i32 0, i32 0
  %23 = getelementptr inbounds [4 x float], ptr %22, i64 0, i64 3
  store float 0.000000e+00, ptr %23, align 4, !tbaa !40
  ret void
}

; Function Attrs: mustprogress uwtable
define linkonce_odr dso_local void @_ZN11btMatrix3x38setValueERKfS1_S1_S1_S1_S1_S1_S1_S1_(ptr noundef nonnull align 4 dereferenceable(48) %0, ptr noundef nonnull align 4 dereferenceable(4) %1, ptr noundef nonnull align 4 dereferenceable(4) %2, ptr noundef nonnull align 4 dereferenceable(4) %3, ptr noundef nonnull align 4 dereferenceable(4) %4, ptr noundef nonnull align 4 dereferenceable(4) %5, ptr noundef nonnull align 4 dereferenceable(4) %6, ptr noundef nonnull align 4 dereferenceable(4) %7, ptr noundef nonnull align 4 dereferenceable(4) %8, ptr noundef nonnull align 4 dereferenceable(4) %9) #2 comdat align 2 {
  %11 = alloca ptr, align 8
  %12 = alloca ptr, align 8
  %13 = alloca ptr, align 8
  %14 = alloca ptr, align 8
  %15 = alloca ptr, align 8
  %16 = alloca ptr, align 8
  %17 = alloca ptr, align 8
  %18 = alloca ptr, align 8
  %19 = alloca ptr, align 8
  %20 = alloca ptr, align 8
  store ptr %0, ptr %11, align 8, !tbaa !90
  store ptr %1, ptr %12, align 8, !tbaa !113
  store ptr %2, ptr %13, align 8, !tbaa !113
  store ptr %3, ptr %14, align 8, !tbaa !113
  store ptr %4, ptr %15, align 8, !tbaa !113
  store ptr %5, ptr %16, align 8, !tbaa !113
  store ptr %6, ptr %17, align 8, !tbaa !113
  store ptr %7, ptr %18, align 8, !tbaa !113
  store ptr %8, ptr %19, align 8, !tbaa !113
  store ptr %9, ptr %20, align 8, !tbaa !113
  %21 = load ptr, ptr %11, align 8
  %22 = getelementptr inbounds nuw %class.btMatrix3x3, ptr %21, i32 0, i32 0
  %23 = getelementptr inbounds [3 x %class.btVector3], ptr %22, i64 0, i64 0
  %24 = load ptr, ptr %12, align 8, !tbaa !113
  %25 = load ptr, ptr %13, align 8, !tbaa !113
  %26 = load ptr, ptr %14, align 8, !tbaa !113
  call void @_ZN9btVector38setValueERKfS1_S1_(ptr noundef nonnull align 4 dereferenceable(16) %23, ptr noundef nonnull align 4 dereferenceable(4) %24, ptr noundef nonnull align 4 dereferenceable(4) %25, ptr noundef nonnull align 4 dereferenceable(4) %26)
  %27 = getelementptr inbounds nuw %class.btMatrix3x3, ptr %21, i32 0, i32 0
  %28 = getelementptr inbounds [3 x %class.btVector3], ptr %27, i64 0, i64 1
  %29 = load ptr, ptr %15, align 8, !tbaa !113
  %30 = load ptr, ptr %16, align 8, !tbaa !113
  %31 = load ptr, ptr %17, align 8, !tbaa !113
  call void @_ZN9btVector38setValueERKfS1_S1_(ptr noundef nonnull align 4 dereferenceable(16) %28, ptr noundef nonnull align 4 dereferenceable(4) %29, ptr noundef nonnull align 4 dereferenceable(4) %30, ptr noundef nonnull align 4 dereferenceable(4) %31)
  %32 = getelementptr inbounds nuw %class.btMatrix3x3, ptr %21, i32 0, i32 0
  %33 = getelementptr inbounds [3 x %class.btVector3], ptr %32, i64 0, i64 2
  %34 = load ptr, ptr %18, align 8, !tbaa !113
  %35 = load ptr, ptr %19, align 8, !tbaa !113
  %36 = load ptr, ptr %20, align 8, !tbaa !113
  call void @_ZN9btVector38setValueERKfS1_S1_(ptr noundef nonnull align 4 dereferenceable(16) %33, ptr noundef nonnull align 4 dereferenceable(4) %34, ptr noundef nonnull align 4 dereferenceable(4) %35, ptr noundef nonnull align 4 dereferenceable(4) %36)
  ret void
}

; Function Attrs: inlinehint mustprogress nounwind uwtable
define linkonce_odr dso_local void @_ZN9btVector3C2Ev(ptr noundef nonnull align 4 dereferenceable(16) %0) unnamed_addr #6 comdat align 2 {
  %2 = alloca ptr, align 8
  store ptr %0, ptr %2, align 8, !tbaa !92
  ret void
}

; Function Attrs: inlinehint mustprogress nounwind uwtable
define linkonce_odr dso_local noundef nonnull align 4 dereferenceable(48) ptr @_ZN11btMatrix3x3aSERKS_(ptr noundef nonnull align 4 dereferenceable(48) %0, ptr noundef nonnull align 4 dereferenceable(48) %1) #6 comdat align 2 {
  %3 = alloca ptr, align 8
  %4 = alloca ptr, align 8
  store ptr %0, ptr %3, align 8, !tbaa !90
  store ptr %1, ptr %4, align 8, !tbaa !90
  %5 = load ptr, ptr %3, align 8
  %6 = load ptr, ptr %4, align 8, !tbaa !90
  %7 = getelementptr inbounds nuw %class.btMatrix3x3, ptr %6, i32 0, i32 0
  %8 = getelementptr inbounds [3 x %class.btVector3], ptr %7, i64 0, i64 0
  %9 = getelementptr inbounds nuw %class.btMatrix3x3, ptr %5, i32 0, i32 0
  %10 = getelementptr inbounds [3 x %class.btVector3], ptr %9, i64 0, i64 0
  call void @llvm.memcpy.p0.p0.i64(ptr align 4 %10, ptr align 4 %8, i64 16, i1 false), !tbaa.struct !94
  %11 = load ptr, ptr %4, align 8, !tbaa !90
  %12 = getelementptr inbounds nuw %class.btMatrix3x3, ptr %11, i32 0, i32 0
  %13 = getelementptr inbounds [3 x %class.btVector3], ptr %12, i64 0, i64 1
  %14 = getelementptr inbounds nuw %class.btMatrix3x3, ptr %5, i32 0, i32 0
  %15 = getelementptr inbounds [3 x %class.btVector3], ptr %14, i64 0, i64 1
  call void @llvm.memcpy.p0.p0.i64(ptr align 4 %15, ptr align 4 %13, i64 16, i1 false), !tbaa.struct !94
  %16 = load ptr, ptr %4, align 8, !tbaa !90
  %17 = getelementptr inbounds nuw %class.btMatrix3x3, ptr %16, i32 0, i32 0
  %18 = getelementptr inbounds [3 x %class.btVector3], ptr %17, i64 0, i64 2
  %19 = getelementptr inbounds nuw %class.btMatrix3x3, ptr %5, i32 0, i32 0
  %20 = getelementptr inbounds [3 x %class.btVector3], ptr %19, i64 0, i64 2
  call void @llvm.memcpy.p0.p0.i64(ptr align 4 %20, ptr align 4 %18, i64 16, i1 false), !tbaa.struct !94
  ret ptr %5
}

; Function Attrs: mustprogress uwtable
define linkonce_odr dso_local void @_ZN11btMatrix3x3C2ERKfS1_S1_S1_S1_S1_S1_S1_S1_(ptr noundef nonnull align 4 dereferenceable(48) %0, ptr noundef nonnull align 4 dereferenceable(4) %1, ptr noundef nonnull align 4 dereferenceable(4) %2, ptr noundef nonnull align 4 dereferenceable(4) %3, ptr noundef nonnull align 4 dereferenceable(4) %4, ptr noundef nonnull align 4 dereferenceable(4) %5, ptr noundef nonnull align 4 dereferenceable(4) %6, ptr noundef nonnull align 4 dereferenceable(4) %7, ptr noundef nonnull align 4 dereferenceable(4) %8, ptr noundef nonnull align 4 dereferenceable(4) %9) unnamed_addr #2 comdat align 2 {
  %11 = alloca ptr, align 8
  %12 = alloca ptr, align 8
  %13 = alloca ptr, align 8
  %14 = alloca ptr, align 8
  %15 = alloca ptr, align 8
  %16 = alloca ptr, align 8
  %17 = alloca ptr, align 8
  %18 = alloca ptr, align 8
  %19 = alloca ptr, align 8
  %20 = alloca ptr, align 8
  store ptr %0, ptr %11, align 8, !tbaa !90
  store ptr %1, ptr %12, align 8, !tbaa !113
  store ptr %2, ptr %13, align 8, !tbaa !113
  store ptr %3, ptr %14, align 8, !tbaa !113
  store ptr %4, ptr %15, align 8, !tbaa !113
  store ptr %5, ptr %16, align 8, !tbaa !113
  store ptr %6, ptr %17, align 8, !tbaa !113
  store ptr %7, ptr %18, align 8, !tbaa !113
  store ptr %8, ptr %19, align 8, !tbaa !113
  store ptr %9, ptr %20, align 8, !tbaa !113
  %21 = load ptr, ptr %11, align 8
  %22 = getelementptr inbounds nuw %class.btMatrix3x3, ptr %21, i32 0, i32 0
  %23 = getelementptr inbounds [3 x %class.btVector3], ptr %22, i32 0, i32 0
  %24 = getelementptr inbounds %class.btVector3, ptr %23, i64 3
  br label %25

25:                                               ; preds = %25, %10
  %26 = phi ptr [ %23, %10 ], [ %27, %25 ]
  call void @_ZN9btVector3C2Ev(ptr noundef nonnull align 4 dereferenceable(16) %26)
  %27 = getelementptr inbounds %class.btVector3, ptr %26, i64 1
  %28 = icmp eq ptr %27, %24
  br i1 %28, label %29, label %25

29:                                               ; preds = %25
  %30 = load ptr, ptr %12, align 8, !tbaa !113
  %31 = load ptr, ptr %13, align 8, !tbaa !113
  %32 = load ptr, ptr %14, align 8, !tbaa !113
  %33 = load ptr, ptr %15, align 8, !tbaa !113
  %34 = load ptr, ptr %16, align 8, !tbaa !113
  %35 = load ptr, ptr %17, align 8, !tbaa !113
  %36 = load ptr, ptr %18, align 8, !tbaa !113
  %37 = load ptr, ptr %19, align 8, !tbaa !113
  %38 = load ptr, ptr %20, align 8, !tbaa !113
  call void @_ZN11btMatrix3x38setValueERKfS1_S1_S1_S1_S1_S1_S1_S1_(ptr noundef nonnull align 4 dereferenceable(48) %21, ptr noundef nonnull align 4 dereferenceable(4) %30, ptr noundef nonnull align 4 dereferenceable(4) %31, ptr noundef nonnull align 4 dereferenceable(4) %32, ptr noundef nonnull align 4 dereferenceable(4) %33, ptr noundef nonnull align 4 dereferenceable(4) %34, ptr noundef nonnull align 4 dereferenceable(4) %35, ptr noundef nonnull align 4 dereferenceable(4) %36, ptr noundef nonnull align 4 dereferenceable(4) %37, ptr noundef nonnull align 4 dereferenceable(4) %38)
  ret void
}

; Function Attrs: inlinehint mustprogress nounwind uwtable
define linkonce_odr dso_local noundef nonnull align 4 dereferenceable(4) ptr @_ZNK9btVector31zEv(ptr noundef nonnull align 4 dereferenceable(16) %0) #6 comdat align 2 {
  %2 = alloca ptr, align 8
  store ptr %0, ptr %2, align 8, !tbaa !92
  %3 = load ptr, ptr %2, align 8
  %4 = getelementptr inbounds nuw %class.btVector3, ptr %3, i32 0, i32 0
  %5 = getelementptr inbounds [4 x float], ptr %4, i64 0, i64 2
  ret ptr %5
}

; Function Attrs: inlinehint mustprogress nounwind uwtable
define linkonce_odr dso_local noundef nonnull align 4 dereferenceable(4) ptr @_ZNK9btVector31yEv(ptr noundef nonnull align 4 dereferenceable(16) %0) #6 comdat align 2 {
  %2 = alloca ptr, align 8
  store ptr %0, ptr %2, align 8, !tbaa !92
  %3 = load ptr, ptr %2, align 8
  %4 = getelementptr inbounds nuw %class.btVector3, ptr %3, i32 0, i32 0
  %5 = getelementptr inbounds [4 x float], ptr %4, i64 0, i64 1
  ret ptr %5
}

; Function Attrs: inlinehint mustprogress nounwind uwtable
define linkonce_odr dso_local noundef nonnull align 4 dereferenceable(4) ptr @_ZNK9btVector31xEv(ptr noundef nonnull align 4 dereferenceable(16) %0) #6 comdat align 2 {
  %2 = alloca ptr, align 8
  store ptr %0, ptr %2, align 8, !tbaa !92
  %3 = load ptr, ptr %2, align 8
  %4 = getelementptr inbounds nuw %class.btVector3, ptr %3, i32 0, i32 0
  %5 = getelementptr inbounds [4 x float], ptr %4, i64 0, i64 0
  ret ptr %5
}

; Function Attrs: mustprogress nounwind uwtable
define linkonce_odr dso_local noundef nonnull align 4 dereferenceable(48) ptr @_ZN24btInverseDynamicsBullet35mat33aSERK11btMatrix3x3(ptr noundef nonnull align 4 dereferenceable(48) %0, ptr noundef nonnull align 4 dereferenceable(48) %1) #1 comdat align 2 {
  %3 = alloca ptr, align 8
  %4 = alloca ptr, align 8
  store ptr %0, ptr %3, align 8, !tbaa !83
  store ptr %1, ptr %4, align 8, !tbaa !90
  %5 = load ptr, ptr %3, align 8
  %6 = load ptr, ptr %4, align 8, !tbaa !90
  %7 = call noundef nonnull align 4 dereferenceable(48) ptr @_ZN11btMatrix3x3aSERKS_(ptr noundef nonnull align 4 dereferenceable(48) %5, ptr noundef nonnull align 4 dereferenceable(48) %6)
  ret ptr %5
}

; Function Attrs: inlinehint mustprogress uwtable
define linkonce_odr dso_local void @_ZNK11btMatrix3x39transposeEv(ptr dead_on_unwind noalias writable sret(%class.btMatrix3x3) align 4 %0, ptr noundef nonnull align 4 dereferenceable(48) %1) #3 comdat align 2 {
  %3 = alloca ptr, align 8
  %4 = alloca ptr, align 8
  store ptr %0, ptr %3, align 8
  store ptr %1, ptr %4, align 8, !tbaa !90
  %5 = load ptr, ptr %4, align 8
  %6 = getelementptr inbounds nuw %class.btMatrix3x3, ptr %5, i32 0, i32 0
  %7 = getelementptr inbounds [3 x %class.btVector3], ptr %6, i64 0, i64 0
  %8 = call noundef nonnull align 4 dereferenceable(4) ptr @_ZNK9btVector31xEv(ptr noundef nonnull align 4 dereferenceable(16) %7)
  %9 = getelementptr inbounds nuw %class.btMatrix3x3, ptr %5, i32 0, i32 0
  %10 = getelementptr inbounds [3 x %class.btVector3], ptr %9, i64 0, i64 1
  %11 = call noundef nonnull align 4 dereferenceable(4) ptr @_ZNK9btVector31xEv(ptr noundef nonnull align 4 dereferenceable(16) %10)
  %12 = getelementptr inbounds nuw %class.btMatrix3x3, ptr %5, i32 0, i32 0
  %13 = getelementptr inbounds [3 x %class.btVector3], ptr %12, i64 0, i64 2
  %14 = call noundef nonnull align 4 dereferenceable(4) ptr @_ZNK9btVector31xEv(ptr noundef nonnull align 4 dereferenceable(16) %13)
  %15 = getelementptr inbounds nuw %class.btMatrix3x3, ptr %5, i32 0, i32 0
  %16 = getelementptr inbounds [3 x %class.btVector3], ptr %15, i64 0, i64 0
  %17 = call noundef nonnull align 4 dereferenceable(4) ptr @_ZNK9btVector31yEv(ptr noundef nonnull align 4 dereferenceable(16) %16)
  %18 = getelementptr inbounds nuw %class.btMatrix3x3, ptr %5, i32 0, i32 0
  %19 = getelementptr inbounds [3 x %class.btVector3], ptr %18, i64 0, i64 1
  %20 = call noundef nonnull align 4 dereferenceable(4) ptr @_ZNK9btVector31yEv(ptr noundef nonnull align 4 dereferenceable(16) %19)
  %21 = getelementptr inbounds nuw %class.btMatrix3x3, ptr %5, i32 0, i32 0
  %22 = getelementptr inbounds [3 x %class.btVector3], ptr %21, i64 0, i64 2
  %23 = call noundef nonnull align 4 dereferenceable(4) ptr @_ZNK9btVector31yEv(ptr noundef nonnull align 4 dereferenceable(16) %22)
  %24 = getelementptr inbounds nuw %class.btMatrix3x3, ptr %5, i32 0, i32 0
  %25 = getelementptr inbounds [3 x %class.btVector3], ptr %24, i64 0, i64 0
  %26 = call noundef nonnull align 4 dereferenceable(4) ptr @_ZNK9btVector31zEv(ptr noundef nonnull align 4 dereferenceable(16) %25)
  %27 = getelementptr inbounds nuw %class.btMatrix3x3, ptr %5, i32 0, i32 0
  %28 = getelementptr inbounds [3 x %class.btVector3], ptr %27, i64 0, i64 1
  %29 = call noundef nonnull align 4 dereferenceable(4) ptr @_ZNK9btVector31zEv(ptr noundef nonnull align 4 dereferenceable(16) %28)
  %30 = getelementptr inbounds nuw %class.btMatrix3x3, ptr %5, i32 0, i32 0
  %31 = getelementptr inbounds [3 x %class.btVector3], ptr %30, i64 0, i64 2
  %32 = call noundef nonnull align 4 dereferenceable(4) ptr @_ZNK9btVector31zEv(ptr noundef nonnull align 4 dereferenceable(16) %31)
  call void @_ZN11btMatrix3x3C2ERKfS1_S1_S1_S1_S1_S1_S1_S1_(ptr noundef nonnull align 4 dereferenceable(48) %0, ptr noundef nonnull align 4 dereferenceable(4) %8, ptr noundef nonnull align 4 dereferenceable(4) %11, ptr noundef nonnull align 4 dereferenceable(4) %14, ptr noundef nonnull align 4 dereferenceable(4) %17, ptr noundef nonnull align 4 dereferenceable(4) %20, ptr noundef nonnull align 4 dereferenceable(4) %23, ptr noundef nonnull align 4 dereferenceable(4) %26, ptr noundef nonnull align 4 dereferenceable(4) %29, ptr noundef nonnull align 4 dereferenceable(4) %32)
  ret void
}

; Function Attrs: inlinehint mustprogress nounwind uwtable
define linkonce_odr dso_local noundef nonnull align 8 dereferenceable(816) ptr @_ZNK20b3AlignedObjectArrayIN24btInverseDynamicsBullet39RigidBodyEEixEi(ptr noundef nonnull align 8 dereferenceable(25) %0, i32 noundef %1) #6 comdat align 2 {
  %3 = alloca ptr, align 8
  %4 = alloca i32, align 4
  store ptr %0, ptr %3, align 8, !tbaa !44
  store i32 %1, ptr %4, align 4, !tbaa !9
  %5 = load ptr, ptr %3, align 8
  %6 = getelementptr inbounds nuw %class.b3AlignedObjectArray, ptr %5, i32 0, i32 4
  %7 = load ptr, ptr %6, align 8, !tbaa !54
  %8 = load i32, ptr %4, align 4, !tbaa !9
  %9 = sext i32 %8 to i64
  %10 = getelementptr inbounds %"struct.btInverseDynamicsBullet3::RigidBody", ptr %7, i64 %9
  ret ptr %10
}

; Function Attrs: mustprogress uwtable
define dso_local noundef i32 @_ZNK24btInverseDynamicsBullet313MultiBodyTree13MultiBodyImpl16getBodyTransformEiPNS_5mat33E(ptr noundef nonnull align 8 dereferenceable(400) %0, i32 noundef %1, ptr noundef %2) #2 align 2 {
  %4 = alloca i32, align 4
  %5 = alloca ptr, align 8
  %6 = alloca i32, align 4
  %7 = alloca ptr, align 8
  %8 = alloca ptr, align 8
  %9 = alloca %class.btMatrix3x3, align 4
  store ptr %0, ptr %5, align 8, !tbaa !12
  store i32 %1, ptr %6, align 4, !tbaa !9
  store ptr %2, ptr %7, align 8, !tbaa !83
  %10 = load ptr, ptr %5, align 8
  br label %11

11:                                               ; preds = %3
  %12 = load i32, ptr %6, align 4, !tbaa !9
  %13 = icmp slt i32 %12, 0
  br i1 %13, label %19, label %14

14:                                               ; preds = %11
  %15 = load i32, ptr %6, align 4, !tbaa !9
  %16 = getelementptr inbounds nuw %"class.btInverseDynamicsBullet3::MultiBodyTree::MultiBodyImpl", ptr %10, i32 0, i32 0
  %17 = load i32, ptr %16, align 8, !tbaa !14
  %18 = icmp sge i32 %15, %17
  br i1 %18, label %19, label %25

19:                                               ; preds = %14, %11
  br label %20

20:                                               ; preds = %19
  call void (ptr, ...) @b3OutputErrorMessageVarArgsInternal(ptr noundef @.str.16, ptr noundef @.str.17, i32 noundef 1073)
  %21 = load i32, ptr %6, align 4, !tbaa !9
  %22 = getelementptr inbounds nuw %"class.btInverseDynamicsBullet3::MultiBodyTree::MultiBodyImpl", ptr %10, i32 0, i32 0
  %23 = load i32, ptr %22, align 8, !tbaa !14
  call void (ptr, ...) @b3OutputErrorMessageVarArgsInternal(ptr noundef @.str.30, i32 noundef %21, i32 noundef %23)
  br label %24

24:                                               ; preds = %20
  store i32 -1, ptr %4, align 4
  br label %34

25:                                               ; preds = %14
  br label %26

26:                                               ; preds = %25
  call void @llvm.lifetime.start.p0(i64 8, ptr %8) #15
  %27 = getelementptr inbounds nuw %"class.btInverseDynamicsBullet3::MultiBodyTree::MultiBodyImpl", ptr %10, i32 0, i32 3
  %28 = load i32, ptr %6, align 4, !tbaa !9
  %29 = call noundef nonnull align 8 dereferenceable(816) ptr @_ZNK20b3AlignedObjectArrayIN24btInverseDynamicsBullet39RigidBodyEEixEi(ptr noundef nonnull align 8 dereferenceable(25) %27, i32 noundef %28)
  store ptr %29, ptr %8, align 8, !tbaa !53
  call void @llvm.lifetime.start.p0(i64 48, ptr %9) #15
  %30 = load ptr, ptr %8, align 8, !tbaa !53
  %31 = getelementptr inbounds nuw %"struct.btInverseDynamicsBullet3::RigidBody", ptr %30, i32 0, i32 14
  call void @_ZNK11btMatrix3x39transposeEv(ptr dead_on_unwind writable sret(%class.btMatrix3x3) align 4 %9, ptr noundef nonnull align 4 dereferenceable(48) %31)
  %32 = load ptr, ptr %7, align 8, !tbaa !83
  %33 = call noundef nonnull align 4 dereferenceable(48) ptr @_ZN24btInverseDynamicsBullet35mat33aSERK11btMatrix3x3(ptr noundef nonnull align 4 dereferenceable(48) %32, ptr noundef nonnull align 4 dereferenceable(48) %9)
  call void @llvm.lifetime.end.p0(i64 48, ptr %9) #15
  store i32 0, ptr %4, align 4
  call void @llvm.lifetime.end.p0(i64 8, ptr %8) #15
  br label %34

34:                                               ; preds = %26, %24
  %35 = load i32, ptr %4, align 4
  ret i32 %35
}