; Function Attrs: mustprogress uwtable
define dso_local noundef range(i32 -1, 1) i32 @_ZNK24btInverseDynamicsBullet313MultiBodyTree13MultiBodyImpl16getBodyTransformEiPNS_5mat33E(ptr noundef nonnull readonly align 8 captures(none) dereferenceable(400) %0, i32 noundef %1, ptr noundef writeonly captures(none) %2) local_unnamed_addr #0 align 2 {
  %4 = icmp sgt i32 %1, -1
  %5 = load i32, ptr %0, align 8
  %.not = icmp slt i32 %1, %5
  %or.cond = select i1 %4, i1 %.not, i1 false
  br i1 %or.cond, label %8, label %6

6:                                                ; preds = %3
  tail call void (ptr, ...) @b3OutputErrorMessageVarArgsInternal(ptr noundef nonnull @.str.16, ptr noundef nonnull @.str.17, i32 noundef 1073)
  %7 = load i32, ptr %0, align 8, !tbaa !4
  tail call void (ptr, ...) @b3OutputErrorMessageVarArgsInternal(ptr noundef nonnull @.str.30, i32 noundef %1, i32 noundef %7)
  br label %32

8:                                                ; preds = %3
  %9 = getelementptr inbounds nuw i8, ptr %0, i64 40
  %10 = load ptr, ptr %9, align 8, !tbaa !34
  %11 = zext nneg i32 %1 to i64
  %12 = getelementptr inbounds nuw %"struct.btInverseDynamicsBullet3::RigidBody", ptr %10, i64 %11, i32 14
  %13 = getelementptr inbounds nuw i8, ptr %12, i64 16
  %14 = getelementptr inbounds nuw i8, ptr %12, i64 32
  %15 = getelementptr inbounds nuw i8, ptr %12, i64 4
  %16 = getelementptr inbounds nuw i8, ptr %12, i64 20
  %17 = getelementptr inbounds nuw i8, ptr %12, i64 36
  %18 = getelementptr inbounds nuw i8, ptr %12, i64 8
  %19 = getelementptr inbounds nuw i8, ptr %12, i64 24
  %20 = getelementptr inbounds nuw i8, ptr %12, i64 40
  %21 = load float, ptr %12, align 4, !tbaa !62, !noalias !208
  %22 = load float, ptr %13, align 4, !tbaa !62, !noalias !208
  %23 = load float, ptr %14, align 4, !tbaa !62, !noalias !208
  %24 = load float, ptr %15, align 4, !tbaa !62, !noalias !208
  %25 = load float, ptr %16, align 4, !tbaa !62, !noalias !208
  %26 = load float, ptr %17, align 4, !tbaa !62, !noalias !208
  %27 = load float, ptr %18, align 4, !tbaa !62, !noalias !208
  %28 = load float, ptr %19, align 4, !tbaa !62, !noalias !208
  %29 = load float, ptr %20, align 4, !tbaa !62, !noalias !208
  store float %21, ptr %2, align 4
  %.sroa.4.0..sroa_idx = getelementptr inbounds nuw i8, ptr %2, i64 4
  store float %22, ptr %.sroa.4.0..sroa_idx, align 4
  %.sroa.5.0..sroa_idx = getelementptr inbounds nuw i8, ptr %2, i64 8
  store float %23, ptr %.sroa.5.0..sroa_idx, align 4
  %.sroa.6.0..sroa_idx = getelementptr inbounds nuw i8, ptr %2, i64 12
  store float 0.000000e+00, ptr %.sroa.6.0..sroa_idx, align 4, !tbaa !83
  %30 = getelementptr inbounds nuw i8, ptr %2, i64 16
  store float %24, ptr %30, align 4
  %.sroa.9.16..sroa_idx = getelementptr inbounds nuw i8, ptr %2, i64 20
  store float %25, ptr %.sroa.9.16..sroa_idx, align 4
  %.sroa.10.16..sroa_idx = getelementptr inbounds nuw i8, ptr %2, i64 24
  store float %26, ptr %.sroa.10.16..sroa_idx, align 4
  %.sroa.11.16..sroa_idx = getelementptr inbounds nuw i8, ptr %2, i64 28
  store float 0.000000e+00, ptr %.sroa.11.16..sroa_idx, align 4, !tbaa !83
  %31 = getelementptr inbounds nuw i8, ptr %2, i64 32
  store float %27, ptr %31, align 4
  %.sroa.14.32..sroa_idx = getelementptr inbounds nuw i8, ptr %2, i64 36
  store float %28, ptr %.sroa.14.32..sroa_idx, align 4
  %.sroa.15.32..sroa_idx = getelementptr inbounds nuw i8, ptr %2, i64 40
  store float %29, ptr %.sroa.15.32..sroa_idx, align 4
  %.sroa.16.32..sroa_idx = getelementptr inbounds nuw i8, ptr %2, i64 44
  store float 0.000000e+00, ptr %.sroa.16.32..sroa_idx, align 4, !tbaa !83
  br label %32

32:                                               ; preds = %8, %6
  %.0 = phi i32 [ -1, %6 ], [ 0, %8 ]
  ret i32 %.0
}